target datalayout = "e-m:e-p270:32:32-p271:32:32-p272:64:64-i64:64-i128:128-f80:128-n8:16:32:64-S128"
target triple = "x86_64-pc-linux-gnu"

%struct.jpeg_decompress_struct = type { ptr, ptr, ptr, ptr, i32, i32, ptr, i32, i32, i32, i32, i32, i32, i32, double, i32, i32, i32, i32, i32, i32, i32, i32, i32, i32, i32, i32, i32, i32, i32, i32, i32, i32, ptr, i32, i32, i32, i32, i32, ptr, [4 x ptr], [4 x ptr], [4 x ptr], i32, ptr, i32, i32, [16 x i8], [16 x i8], [16 x i8], i32, i32, i8, i8, i8, i16, i16, i32, i8, i32, ptr, i32, i32, i32, i32, ptr, i32, [4 x ptr], i32, i32, i32, [10 x i32], i32, i32, i32, i32, i32, ptr, ptr, ptr, ptr, ptr, ptr, ptr, ptr, ptr, ptr, ptr }
%struct.jpeg_progress_mgr = type { ptr, i64, i64, i32, i32 }
%struct.jpeg_error_mgr = type { ptr, ptr, ptr, ptr, ptr, i32, %union.anon, i32, i64, ptr, i32, ptr, i32, i32 }
%union.anon = type { [8 x i32], [48 x i8] }
%struct.jpeg_decomp_master = type { ptr, ptr, i32, i32, i32, i32, [10 x i32], [10 x i32], i32, i32, ptr }
%struct.jpeg_d_main_controller = type { ptr, ptr, ptr, ptr }

; Function Attrs: nounwind uwtable
define internal i32 @output_pass_setup(ptr noundef %0) #0 {
  %2 = alloca i32, align 4
  %3 = alloca ptr, align 8
  %4 = alloca i32, align 4
  %5 = alloca i32, align 4
  store ptr %0, ptr %3, align 8, !tbaa !3
  %6 = load ptr, ptr %3, align 8, !tbaa !3
  %7 = getelementptr inbounds nuw %struct.jpeg_decompress_struct, ptr %6, i32 0, i32 5
  %8 = load i32, ptr %7, align 4, !tbaa !8
  %9 = icmp ne i32 %8, 204
  br i1 %9, label %10, label %21

10:                                               ; preds = %1
  %11 = load ptr, ptr %3, align 8, !tbaa !3
  %12 = getelementptr inbounds nuw %struct.jpeg_decompress_struct, ptr %11, i32 0, i32 77
  %13 = load ptr, ptr %12, align 8, !tbaa !52
  %14 = getelementptr inbounds nuw %struct.jpeg_decomp_master, ptr %13, i32 0, i32 0
  %15 = load ptr, ptr %14, align 8, !tbaa !53
  %16 = load ptr, ptr %3, align 8, !tbaa !3
  call void %15(ptr noundef %16)
  %17 = load ptr, ptr %3, align 8, !tbaa !3
  %18 = getelementptr inbounds nuw %struct.jpeg_decompress_struct, ptr %17, i32 0, i32 34
  store i32 0, ptr %18, align 8, !tbaa !55
  %19 = load ptr, ptr %3, align 8, !tbaa !3
  %20 = getelementptr inbounds nuw %struct.jpeg_decompress_struct, ptr %19, i32 0, i32 5
  store i32 204, ptr %20, align 4, !tbaa !8
  br label %21

21:                                               ; preds = %10, %1
  br label %22

22:                                               ; preds = %196, %21
  %23 = load ptr, ptr %3, align 8, !tbaa !3
  %24 = getelementptr inbounds nuw %struct.jpeg_decompress_struct, ptr %23, i32 0, i32 77
  %25 = load ptr, ptr %24, align 8, !tbaa !52
  %26 = getelementptr inbounds nuw %struct.jpeg_decomp_master, ptr %25, i32 0, i32 2
  %27 = load i32, ptr %26, align 8, !tbaa !56
  %28 = icmp ne i32 %27, 0
  br i1 %28, label %29, label %211

29:                                               ; preds = %22
  br label %30

30:                                               ; preds = %195, %29
  %31 = load ptr, ptr %3, align 8, !tbaa !3
  %32 = getelementptr inbounds nuw %struct.jpeg_decompress_struct, ptr %31, i32 0, i32 34
  %33 = load i32, ptr %32, align 8, !tbaa !55
  %34 = load ptr, ptr %3, align 8, !tbaa !3
  %35 = getelementptr inbounds nuw %struct.jpeg_decompress_struct, ptr %34, i32 0, i32 28
  %36 = load i32, ptr %35, align 4, !tbaa !57
  %37 = icmp ult i32 %33, %36
  br i1 %37, label %38, label %196

38:                                               ; preds = %30
  call void @llvm.lifetime.start.p0(i64 4, ptr %4) #4
  %39 = load ptr, ptr %3, align 8, !tbaa !3
  %40 = getelementptr inbounds nuw %struct.jpeg_decompress_struct, ptr %39, i32 0, i32 2
  %41 = load ptr, ptr %40, align 8, !tbaa !36
  %42 = icmp ne ptr %41, null
  br i1 %42, label %43, label %66

43:                                               ; preds = %38
  %44 = load ptr, ptr %3, align 8, !tbaa !3
  %45 = getelementptr inbounds nuw %struct.jpeg_decompress_struct, ptr %44, i32 0, i32 34
  %46 = load i32, ptr %45, align 8, !tbaa !55
  %47 = zext i32 %46 to i64
  %48 = load ptr, ptr %3, align 8, !tbaa !3
  %49 = getelementptr inbounds nuw %struct.jpeg_decompress_struct, ptr %48, i32 0, i32 2
  %50 = load ptr, ptr %49, align 8, !tbaa !36
  %51 = getelementptr inbounds nuw %struct.jpeg_progress_mgr, ptr %50, i32 0, i32 1
  store i64 %47, ptr %51, align 8, !tbaa !42
  %52 = load ptr, ptr %3, align 8, !tbaa !3
  %53 = getelementptr inbounds nuw %struct.jpeg_decompress_struct, ptr %52, i32 0, i32 28
  %54 = load i32, ptr %53, align 4, !tbaa !57
  %55 = zext i32 %54 to i64
  %56 = load ptr, ptr %3, align 8, !tbaa !3
  %57 = getelementptr inbounds nuw %struct.jpeg_decompress_struct, ptr %56, i32 0, i32 2
  %58 = load ptr, ptr %57, align 8, !tbaa !36
  %59 = getelementptr inbounds nuw %struct.jpeg_progress_mgr, ptr %58, i32 0, i32 2
  store i64 %55, ptr %59, align 8, !tbaa !43
  %60 = load ptr, ptr %3, align 8, !tbaa !3
  %61 = getelementptr inbounds nuw %struct.jpeg_decompress_struct, ptr %60, i32 0, i32 2
  %62 = load ptr, ptr %61, align 8, !tbaa !36
  %63 = getelementptr inbounds nuw %struct.jpeg_progress_mgr, ptr %62, i32 0, i32 0
  %64 = load ptr, ptr %63, align 8, !tbaa !37
  %65 = load ptr, ptr %3, align 8, !tbaa !3
  call void %64(ptr noundef %65)
  br label %66

66:                                               ; preds = %43, %38
  %67 = load ptr, ptr %3, align 8, !tbaa !3
  %68 = getelementptr inbounds nuw %struct.jpeg_decompress_struct, ptr %67, i32 0, i32 34
  %69 = load i32, ptr %68, align 8, !tbaa !55
  store i32 %69, ptr %4, align 4, !tbaa !41
  %70 = load ptr, ptr %3, align 8, !tbaa !3
  %71 = getelementptr inbounds nuw %struct.jpeg_decompress_struct, ptr %70, i32 0, i32 43
  %72 = load i32, ptr %71, align 8, !tbaa !58
  %73 = icmp sle i32 %72, 8
  br i1 %73, label %74, label %109

74:                                               ; preds = %66
  %75 = load ptr, ptr %3, align 8, !tbaa !3
  %76 = getelementptr inbounds nuw %struct.jpeg_decompress_struct, ptr %75, i32 0, i32 78
  %77 = load ptr, ptr %76, align 8, !tbaa !59
  %78 = getelementptr inbounds nuw %struct.jpeg_d_main_controller, ptr %77, i32 0, i32 1
  %79 = load ptr, ptr %78, align 8, !tbaa !60
  %80 = icmp eq ptr %79, null
  br i1 %80, label %81, label %100

81:                                               ; preds = %74
  %82 = load ptr, ptr %3, align 8, !tbaa !3
  %83 = getelementptr inbounds nuw %struct.jpeg_decompress_struct, ptr %82, i32 0, i32 0
  %84 = load ptr, ptr %83, align 8, !tbaa !47
  %85 = getelementptr inbounds nuw %struct.jpeg_error_mgr, ptr %84, i32 0, i32 5
  store i32 15, ptr %85, align 8, !tbaa !48
  %86 = load ptr, ptr %3, align 8, !tbaa !3
  %87 = getelementptr inbounds nuw %struct.jpeg_decompress_struct, ptr %86, i32 0, i32 43
  %88 = load i32, ptr %87, align 8, !tbaa !58
  %89 = load ptr, ptr %3, align 8, !tbaa !3
  %90 = getelementptr inbounds nuw %struct.jpeg_decompress_struct, ptr %89, i32 0, i32 0
  %91 = load ptr, ptr %90, align 8, !tbaa !47
  %92 = getelementptr inbounds nuw %struct.jpeg_error_mgr, ptr %91, i32 0, i32 6
  %93 = getelementptr inbounds [8 x i32], ptr %92, i64 0, i64 0
  store i32 %88, ptr %93, align 4, !tbaa !50
  %94 = load ptr, ptr %3, align 8, !tbaa !3
  %95 = getelementptr inbounds nuw %struct.jpeg_decompress_struct, ptr %94, i32 0, i32 0
  %96 = load ptr, ptr %95, align 8, !tbaa !47
  %97 = getelementptr inbounds nuw %struct.jpeg_error_mgr, ptr %96, i32 0, i32 0
  %98 = load ptr, ptr %97, align 8, !tbaa !51
  %99 = load ptr, ptr %3, align 8, !tbaa !3
  call void %98(ptr noundef %99)
  br label %100

100:                                              ; preds = %81, %74
  %101 = load ptr, ptr %3, align 8, !tbaa !3
  %102 = getelementptr inbounds nuw %struct.jpeg_decompress_struct, ptr %101, i32 0, i32 78
  %103 = load ptr, ptr %102, align 8, !tbaa !59
  %104 = getelementptr inbounds nuw %struct.jpeg_d_main_controller, ptr %103, i32 0, i32 1
  %105 = load ptr, ptr %104, align 8, !tbaa !60
  %106 = load ptr, ptr %3, align 8, !tbaa !3
  %107 = load ptr, ptr %3, align 8, !tbaa !3
  %108 = getelementptr inbounds nuw %struct.jpeg_decompress_struct, ptr %107, i32 0, i32 34
  call void %105(ptr noundef %106, ptr noundef null, ptr noundef %108, i32 noundef 0)
  br label %185

109:                                              ; preds = %66
  %110 = load ptr, ptr %3, align 8, !tbaa !3
  %111 = getelementptr inbounds nuw %struct.jpeg_decompress_struct, ptr %110, i32 0, i32 43
  %112 = load i32, ptr %111, align 8, !tbaa !58
  %113 = icmp sle i32 %112, 12
  br i1 %113, label %114, label %149

114:                                              ; preds = %109
  %115 = load ptr, ptr %3, align 8, !tbaa !3
  %116 = getelementptr inbounds nuw %struct.jpeg_decompress_struct, ptr %115, i32 0, i32 78
  %117 = load ptr, ptr %116, align 8, !tbaa !59
  %118 = getelementptr inbounds nuw %struct.jpeg_d_main_controller, ptr %117, i32 0, i32 2
  %119 = load ptr, ptr %118, align 8, !tbaa !62
  %120 = icmp eq ptr %119, null
  br i1 %120, label %121, label %140

121:                                              ; preds = %114
  %122 = load ptr, ptr %3, align 8, !tbaa !3
  %123 = getelementptr inbounds nuw %struct.jpeg_decompress_struct, ptr %122, i32 0, i32 0
  %124 = load ptr, ptr %123, align 8, !tbaa !47
  %125 = getelementptr inbounds nuw %struct.jpeg_error_mgr, ptr %124, i32 0, i32 5
  store i32 15, ptr %125, align 8, !tbaa !48
  %126 = load ptr, ptr %3, align 8, !tbaa !3
  %127 = getelementptr inbounds nuw %struct.jpeg_decompress_struct, ptr %126, i32 0, i32 43
  %128 = load i32, ptr %127, align 8, !tbaa !58
  %129 = load ptr, ptr %3, align 8, !tbaa !3
  %130 = getelementptr inbounds nuw %struct.jpeg_decompress_struct, ptr %129, i32 0, i32 0
  %131 = load ptr, ptr %130, align 8, !tbaa !47
  %132 = getelementptr inbounds nuw %struct.jpeg_error_mgr, ptr %131, i32 0, i32 6
  %133 = getelementptr inbounds [8 x i32], ptr %132, i64 0, i64 0
  store i32 %128, ptr %133, align 4, !tbaa !50
  %134 = load ptr, ptr %3, align 8, !tbaa !3
  %135 = getelementptr inbounds nuw %struct.jpeg_decompress_struct, ptr %134, i32 0, i32 0
  %136 = load ptr, ptr %135, align 8, !tbaa !47
  %137 = getelementptr inbounds nuw %struct.jpeg_error_mgr, ptr %136, i32 0, i32 0
  %138 = load ptr, ptr %137, align 8, !tbaa !51
  %139 = load ptr, ptr %3, align 8, !tbaa !3
  call void %138(ptr noundef %139)
  br label %140

140:                                              ; preds = %121, %114
  %141 = load ptr, ptr %3, align 8, !tbaa !3
  %142 = getelementptr inbounds nuw %struct.jpeg_decompress_struct, ptr %141, i32 0, i32 78
  %143 = load ptr, ptr %142, align 8, !tbaa !59
  %144 = getelementptr inbounds nuw %struct.jpeg_d_main_controller, ptr %143, i32 0, i32 2
  %145 = load ptr, ptr %144, align 8, !tbaa !62
  %146 = load ptr, ptr %3, align 8, !tbaa !3
  %147 = load ptr, ptr %3, align 8, !tbaa !3
  %148 = getelementptr inbounds nuw %struct.jpeg_decompress_struct, ptr %147, i32 0, i32 34
  call void %145(ptr noundef %146, ptr noundef null, ptr noundef %148, i32 noundef 0)
  br label %184

149:                                              ; preds = %109
  %150 = load ptr, ptr %3, align 8, !tbaa !3
  %151 = getelementptr inbounds nuw %struct.jpeg_decompress_struct, ptr %150, i32 0, i32 78
  %152 = load ptr, ptr %151, align 8, !tbaa !59
  %153 = getelementptr inbounds nuw %struct.jpeg_d_main_controller, ptr %152, i32 0, i32 3
  %154 = load ptr, ptr %153, align 8, !tbaa !63
  %155 = icmp eq ptr %154, null
  br i1 %155, label %156, label %175

156:                                              ; preds = %149
  %157 = load ptr, ptr %3, align 8, !tbaa !3
  %158 = getelementptr inbounds nuw %struct.jpeg_decompress_struct, ptr %157, i32 0, i32 0
  %159 = load ptr, ptr %158, align 8, !tbaa !47
  %160 = getelementptr inbounds nuw %struct.jpeg_error_mgr, ptr %159, i32 0, i32 5
  store i32 15, ptr %160, align 8, !tbaa !48
  %161 = load ptr, ptr %3, align 8, !tbaa !3
  %162 = getelementptr inbounds nuw %struct.jpeg_decompress_struct, ptr %161, i32 0, i32 43
  %163 = load i32, ptr %162, align 8, !tbaa !58
  %164 = load ptr, ptr %3, align 8, !tbaa !3
  %165 = getelementptr inbounds nuw %struct.jpeg_decompress_struct, ptr %164, i32 0, i32 0
  %166 = load ptr, ptr %165, align 8, !tbaa !47
  %167 = getelementptr inbounds nuw %struct.jpeg_error_mgr, ptr %166, i32 0, i32 6
  %168 = getelementptr inbounds [8 x i32], ptr %167, i64 0, i64 0
  store i32 %163, ptr %168, align 4, !tbaa !50
  %169 = load ptr, ptr %3, align 8, !tbaa !3
  %170 = getelementptr inbounds nuw %struct.jpeg_decompress_struct, ptr %169, i32 0, i32 0
  %171 = load ptr, ptr %170, align 8, !tbaa !47
  %172 = getelementptr inbounds nuw %struct.jpeg_error_mgr, ptr %171, i32 0, i32 0
  %173 = load ptr, ptr %172, align 8, !tbaa !51
  %174 = load ptr, ptr %3, align 8, !tbaa !3
  call void %173(ptr noundef %174)
  br label %175

175:                                              ; preds = %156, %149
  %176 = load ptr, ptr %3, align 8, !tbaa !3
  %177 = getelementptr inbounds nuw %struct.jpeg_decompress_struct, ptr %176, i32 0, i32 78
  %178 = load ptr, ptr %177, align 8, !tbaa !59
  %179 = getelementptr inbounds nuw %struct.jpeg_d_main_controller, ptr %178, i32 0, i32 3
  %180 = load ptr, ptr %179, align 8, !tbaa !63
  %181 = load ptr, ptr %3, align 8, !tbaa !3
  %182 = load ptr, ptr %3, align 8, !tbaa !3
  %183 = getelementptr inbounds nuw %struct.jpeg_decompress_struct, ptr %182, i32 0, i32 34
  call void %180(ptr noundef %181, ptr noundef null, ptr noundef %183, i32 noundef 0)
  br label %184

184:                                              ; preds = %175, %140
  br label %185

185:                                              ; preds = %184, %100
  %186 = load ptr, ptr %3, align 8, !tbaa !3
  %187 = getelementptr inbounds nuw %struct.jpeg_decompress_struct, ptr %186, i32 0, i32 34
  %188 = load i32, ptr %187, align 8, !tbaa !55
  %189 = load i32, ptr %4, align 4, !tbaa !41
  %190 = icmp eq i32 %188, %189
  br i1 %190, label %191, label %192

191:                                              ; preds = %185
  store i32 0, ptr %2, align 4
  store i32 1, ptr %5, align 4
  br label %193

192:                                              ; preds = %185
  store i32 0, ptr %5, align 4
  br label %193

193:                                              ; preds = %192, %191
  call void @llvm.lifetime.end.p0(i64 4, ptr %4) #4
  %194 = load i32, ptr %5, align 4
  switch i32 %194, label %221 [
    i32 0, label %195
    i32 1, label %219
  ]

195:                                              ; preds = %193
  br label %30, !llvm.loop !64

196:                                              ; preds = %30
  %197 = load ptr, ptr %3, align 8, !tbaa !3
  %198 = getelementptr inbounds nuw %struct.jpeg_decompress_struct, ptr %197, i32 0, i32 77
  %199 = load ptr, ptr %198, align 8, !tbaa !52
  %200 = getelementptr inbounds nuw %struct.jpeg_decomp_master, ptr %199, i32 0, i32 1
  %201 = load ptr, ptr %200, align 8, !tbaa !66
  %202 = load ptr, ptr %3, align 8, !tbaa !3
  call void %201(ptr noundef %202)
  %203 = load ptr, ptr %3, align 8, !tbaa !3
  %204 = getelementptr inbounds nuw %struct.jpeg_decompress_struct, ptr %203, i32 0, i32 77
  %205 = load ptr, ptr %204, align 8, !tbaa !52
  %206 = getelementptr inbounds nuw %struct.jpeg_decomp_master, ptr %205, i32 0, i32 0
  %207 = load ptr, ptr %206, align 8, !tbaa !53
  %208 = load ptr, ptr %3, align 8, !tbaa !3
  call void %207(ptr noundef %208)
  %209 = load ptr, ptr %3, align 8, !tbaa !3
  %210 = getelementptr inbounds nuw %struct.jpeg_decompress_struct, ptr %209, i32 0, i32 34
  store i32 0, ptr %210, align 8, !tbaa !55
  br label %22, !llvm.loop !67

211:                                              ; preds = %22
  %212 = load ptr, ptr %3, align 8, !tbaa !3
  %213 = getelementptr inbounds nuw %struct.jpeg_decompress_struct, ptr %212, i32 0, i32 16
  %214 = load i32, ptr %213, align 4, !tbaa !68
  %215 = icmp ne i32 %214, 0
  %216 = select i1 %215, i32 206, i32 205
  %217 = load ptr, ptr %3, align 8, !tbaa !3
  %218 = getelementptr inbounds nuw %struct.jpeg_decompress_struct, ptr %217, i32 0, i32 5
  store i32 %216, ptr %218, align 4, !tbaa !8
  store i32 1, ptr %2, align 4
  br label %219

219:                                              ; preds = %211, %193
  %220 = load i32, ptr %2, align 4
  ret i32 %220

221:                                              ; preds = %193
  unreachable
}