; Function Attrs: nounwind uwtable
define internal fastcc range(i32 0, 2) i32 @output_pass_setup(ptr noundef %0) unnamed_addr #0 {
  %2 = getelementptr inbounds nuw i8, ptr %0, i64 36
  %3 = load i32, ptr %2, align 4, !tbaa !3
  %.not = icmp eq i32 %3, 204
  br i1 %.not, label %9, label %4

4:                                                ; preds = %1
  %5 = getelementptr inbounds nuw i8, ptr %0, i64 544
  %6 = load ptr, ptr %5, align 8, !tbaa !49
  %7 = load ptr, ptr %6, align 8, !tbaa !50
  tail call void %7(ptr noundef nonnull %0) #5
  %8 = getelementptr inbounds nuw i8, ptr %0, i64 168
  store i32 0, ptr %8, align 8, !tbaa !52
  store i32 204, ptr %2, align 4, !tbaa !3
  br label %9

9:                                                ; preds = %4, %1
  %10 = getelementptr inbounds nuw i8, ptr %0, i64 544
  %11 = load ptr, ptr %10, align 8, !tbaa !49
  %12 = getelementptr inbounds nuw i8, ptr %11, i64 16
  %13 = load i32, ptr %12, align 8, !tbaa !53
  %.not5964 = icmp eq i32 %13, 0
  br i1 %.not5964, label %._crit_edge, label %.preheader.lr.ph

.preheader.lr.ph:                                 ; preds = %9
  %14 = getelementptr inbounds nuw i8, ptr %0, i64 168
  %15 = getelementptr inbounds nuw i8, ptr %0, i64 140
  %16 = getelementptr inbounds nuw i8, ptr %0, i64 16
  %17 = getelementptr inbounds nuw i8, ptr %0, i64 296
  %18 = getelementptr inbounds nuw i8, ptr %0, i64 552
  %.pre.pre = load i32, ptr %14, align 8, !tbaa !52
  br label %.preheader

.preheader:                                       ; preds = %.preheader.backedge, %.preheader.lr.ph
  %19 = phi i32 [ %.pre.pre, %.preheader.lr.ph ], [ %.be, %.preheader.backedge ]
  %20 = load i32, ptr %15, align 4, !tbaa !54
  %21 = icmp ult i32 %19, %20
  br i1 %21, label %22, label %57

22:                                               ; preds = %.preheader
  %23 = load ptr, ptr %16, align 8, !tbaa !34
  %.not61 = icmp eq ptr %23, null
  br i1 %.not61, label %30, label %24

24:                                               ; preds = %22
  %25 = zext i32 %19 to i64
  %26 = getelementptr inbounds nuw i8, ptr %23, i64 8
  store i64 %25, ptr %26, align 8, !tbaa !39
  %27 = zext i32 %20 to i64
  %28 = getelementptr inbounds nuw i8, ptr %23, i64 16
  store i64 %27, ptr %28, align 8, !tbaa !40
  %29 = load ptr, ptr %23, align 8, !tbaa !35
  tail call void %29(ptr noundef nonnull %0) #5
  %.pre65 = load i32, ptr %14, align 8, !tbaa !52
  br label %30

30:                                               ; preds = %24, %22
  %31 = phi i32 [ %.pre65, %24 ], [ %19, %22 ]
  %32 = load i32, ptr %17, align 8, !tbaa !55
  %33 = icmp slt i32 %32, 9
  br i1 %33, label %34, label %39

34:                                               ; preds = %30
  %35 = load ptr, ptr %18, align 8, !tbaa !56
  %36 = getelementptr inbounds nuw i8, ptr %35, i64 8
  %37 = load ptr, ptr %36, align 8, !tbaa !57
  %38 = icmp eq ptr %37, null
  br i1 %38, label %.sink.split, label %55

39:                                               ; preds = %30
  %40 = icmp samesign ult i32 %32, 13
  %41 = load ptr, ptr %18, align 8, !tbaa !56
  br i1 %40, label %42, label %46

42:                                               ; preds = %39
  %43 = getelementptr inbounds nuw i8, ptr %41, i64 16
  %44 = load ptr, ptr %43, align 8, !tbaa !59
  %45 = icmp eq ptr %44, null
  br i1 %45, label %.sink.split, label %55

46:                                               ; preds = %39
  %47 = getelementptr inbounds nuw i8, ptr %41, i64 24
  %48 = load ptr, ptr %47, align 8, !tbaa !60
  %49 = icmp eq ptr %48, null
  br i1 %49, label %.sink.split, label %55

.sink.split:                                      ; preds = %46, %42, %34
  %.sink75 = phi i64 [ 8, %34 ], [ 16, %42 ], [ 24, %46 ]
  %50 = load ptr, ptr %0, align 8, !tbaa !44
  %51 = getelementptr inbounds nuw i8, ptr %50, i64 40
  store i32 15, ptr %51, align 8, !tbaa !45
  %52 = getelementptr inbounds nuw i8, ptr %50, i64 44
  store i32 %32, ptr %52, align 4, !tbaa !47
  %53 = load ptr, ptr %0, align 8, !tbaa !44
  %54 = load ptr, ptr %53, align 8, !tbaa !48
  tail call void %54(ptr noundef nonnull %0) #5
  %.pre66 = load ptr, ptr %18, align 8, !tbaa !56
  %.phi.trans.insert = getelementptr inbounds nuw i8, ptr %.pre66, i64 %.sink75
  %.pre67 = load ptr, ptr %.phi.trans.insert, align 8, !tbaa !61
  br label %55

55:                                               ; preds = %.sink.split, %46, %42, %34
  %.sink = phi ptr [ %37, %34 ], [ %44, %42 ], [ %48, %46 ], [ %.pre67, %.sink.split ]
  tail call void %.sink(ptr noundef nonnull %0, ptr noundef null, ptr noundef nonnull %14, i32 noundef 0) #5
  %56 = load i32, ptr %14, align 8, !tbaa !52
  %.not62 = icmp eq i32 %56, %31
  br i1 %.not62, label %.loopexit, label %.preheader.backedge

.preheader.backedge:                              ; preds = %55, %57
  %.be = phi i32 [ %56, %55 ], [ 0, %57 ]
  br label %.preheader, !llvm.loop !62

57:                                               ; preds = %.preheader
  %58 = load ptr, ptr %10, align 8, !tbaa !49
  %59 = getelementptr inbounds nuw i8, ptr %58, i64 8
  %60 = load ptr, ptr %59, align 8, !tbaa !64
  tail call void %60(ptr noundef nonnull %0) #5
  %61 = load ptr, ptr %10, align 8, !tbaa !49
  %62 = load ptr, ptr %61, align 8, !tbaa !50
  tail call void %62(ptr noundef nonnull %0) #5
  store i32 0, ptr %14, align 8, !tbaa !52
  %63 = load ptr, ptr %10, align 8, !tbaa !49
  %64 = getelementptr inbounds nuw i8, ptr %63, i64 16
  %65 = load i32, ptr %64, align 8, !tbaa !53
  %.not59 = icmp eq i32 %65, 0
  br i1 %.not59, label %._crit_edge, label %.preheader.backedge

._crit_edge:                                      ; preds = %57, %9
  %66 = getelementptr inbounds nuw i8, ptr %0, i64 92
  %67 = load i32, ptr %66, align 4, !tbaa !65
  %.not60 = icmp eq i32 %67, 0
  %68 = select i1 %.not60, i32 205, i32 206
  store i32 %68, ptr %2, align 4, !tbaa !3
  br label %.loopexit

.loopexit:                                        ; preds = %55, %._crit_edge
  %.3 = phi i32 [ 1, %._crit_edge ], [ 0, %55 ]
  ret i32 %.3
}